target datalayout = "e-m:e-p270:32:32-p271:32:32-p272:64:64-i64:64-i128:128-f80:128-n8:16:32:64-S128"
target triple = "x86_64-pc-linux-gnu"

%struct.AVFormatContext = type { ptr, ptr, ptr, ptr, ptr, i32, i32, ptr, i32, ptr, i32, ptr, ptr, i64, i64, i64, i32, i32, i32, i64, i64, ptr, i32, i32, ptr, i32, i32, i32, i32, ptr, i64, i32, i32, %struct.AVIOInterruptCB, i32, i32, i32, i32, i64, i32, i32, i32, i32, i32, i32, i32, i32, i32, i32, i32, i32, i64, i32, i32, i32, i32, i32, ptr, ptr, ptr, ptr, i32, ptr, ptr, ptr, ptr, i32, ptr, ptr, i64, ptr, ptr, ptr, i64 }
%struct.AVIOInterruptCB = type { ptr, ptr }

; Function Attrs: nounwind uwtable
define i32 @ff_format_io_close(ptr noundef %0, ptr noundef %1) #0 {
  %3 = alloca ptr, align 8
  %4 = alloca ptr, align 8
  %5 = alloca i32, align 4
  store ptr %0, ptr %3, align 8, !tbaa !47
  store ptr %1, ptr %4, align 8, !tbaa !180
  call void @llvm.lifetime.start.p0(i64 4, ptr %5) #11
  store i32 0, ptr %5, align 4, !tbaa !74
  %6 = load ptr, ptr %4, align 8, !tbaa !180
  %7 = load ptr, ptr %6, align 8, !tbaa !182
  %8 = icmp ne ptr %7, null
  br i1 %8, label %9, label %17

9:                                                ; preds = %2
  %10 = load ptr, ptr %3, align 8, !tbaa !47
  %11 = getelementptr inbounds nuw %struct.AVFormatContext, ptr %10, i32 0, i32 72
  %12 = load ptr, ptr %11, align 8, !tbaa !183
  %13 = load ptr, ptr %3, align 8, !tbaa !47
  %14 = load ptr, ptr %4, align 8, !tbaa !180
  %15 = load ptr, ptr %14, align 8, !tbaa !182
  %16 = call i32 %12(ptr noundef %13, ptr noundef %15)
  store i32 %16, ptr %5, align 4, !tbaa !74
  br label %17

17:                                               ; preds = %9, %2
  %18 = load ptr, ptr %4, align 8, !tbaa !180
  store ptr null, ptr %18, align 8, !tbaa !182
  %19 = load i32, ptr %5, align 4, !tbaa !74
  call void @llvm.lifetime.end.p0(i64 4, ptr %5) #11
  ret i32 %19
}