; Function Attrs: nounwind uwtable
define i32 @ff_format_io_close(ptr noundef %0, ptr noundef captures(none) %1) local_unnamed_addr #0 {
  %3 = load ptr, ptr %1, align 8, !tbaa !154
  %.not = icmp eq ptr %3, null
  br i1 %.not, label %8, label %4

4:                                                ; preds = %2
  %5 = getelementptr inbounds nuw i8, ptr %0, i64 456
  %6 = load ptr, ptr %5, align 8, !tbaa !155
  %7 = tail call i32 %6(ptr noundef %0, ptr noundef nonnull %3) #13
  br label %8

8:                                                ; preds = %4, %2
  %.0 = phi i32 [ %7, %4 ], [ 0, %2 ]
  store ptr null, ptr %1, align 8, !tbaa !154
  ret i32 %.0
}